target datalayout = "e-m:e-p270:32:32-p271:32:32-p272:64:64-i64:64-i128:128-f80:128-n8:16:32:64-S128"
target triple = "x86_64-pc-linux-gnu"

%struct.ResultRelInfo = type { i32, i32, ptr, i32, ptr, ptr, i16, ptr, i8, ptr, ptr, ptr, i8, i8, ptr, ptr, ptr, ptr, ptr, ptr, ptr, ptr, ptr, ptr, i8, i32, i32, i32, ptr, ptr, ptr, ptr, ptr, ptr, ptr, i32, i32, ptr, ptr, ptr, ptr, [3 x ptr], ptr, ptr, ptr, i8, ptr, i8, ptr, ptr, ptr, ptr }
%struct.ModifyTableState = type { %struct.PlanState, i32, i8, i8, i32, ptr, ptr, %struct.EPQState, i8, i32, i32, i32, ptr, ptr, ptr, ptr, ptr, i32, ptr, ptr, double, double, double, ptr, ptr, ptr }
%struct.PlanState = type { i32, ptr, ptr, ptr, ptr, ptr, ptr, ptr, ptr, ptr, ptr, ptr, ptr, ptr, ptr, ptr, ptr, ptr, i8, ptr, ptr, ptr, ptr, ptr, i8, i8, i8, i8, i8, i8, i8, i8 }
%struct.EPQState = type { ptr, i32, ptr, ptr, ptr, ptr, ptr, ptr, ptr, ptr, ptr, ptr, ptr }
%struct.FdwRoutine = type { i32, ptr, ptr, ptr, ptr, ptr, ptr, ptr, ptr, ptr, ptr, ptr, ptr, ptr, ptr, ptr, ptr, ptr, ptr, ptr, ptr, ptr, ptr, ptr, ptr, ptr, ptr, ptr, ptr, ptr, ptr, ptr, ptr, ptr, ptr, ptr, ptr, ptr, ptr, ptr, ptr, ptr, ptr, ptr, ptr, ptr }

; Function Attrs: nounwind uwtable
define dso_local void @ExecEndModifyTable(ptr noundef %0) #0 {
  %2 = alloca ptr, align 8
  %3 = alloca i32, align 4
  %4 = alloca i32, align 4
  %5 = alloca ptr, align 8
  store ptr %0, ptr %2, align 8
  call void @llvm.lifetime.start.p0(i64 4, ptr %3) #8
  store i32 0, ptr %3, align 4
  br label %6

6:                                                ; preds = %72, %1
  %7 = load i32, ptr %3, align 4
  %8 = load ptr, ptr %2, align 8
  %9 = getelementptr inbounds nuw %struct.ModifyTableState, ptr %8, i32 0, i32 4
  %10 = load i32, ptr %9, align 8
  %11 = icmp slt i32 %7, %10
  br i1 %11, label %12, label %75

12:                                               ; preds = %6
  call void @llvm.lifetime.start.p0(i64 4, ptr %4) #8
  call void @llvm.lifetime.start.p0(i64 8, ptr %5) #8
  %13 = load ptr, ptr %2, align 8
  %14 = getelementptr inbounds nuw %struct.ModifyTableState, ptr %13, i32 0, i32 5
  %15 = load ptr, ptr %14, align 8
  %16 = load i32, ptr %3, align 4
  %17 = sext i32 %16 to i64
  %18 = getelementptr inbounds %struct.ResultRelInfo, ptr %15, i64 %17
  store ptr %18, ptr %5, align 8
  %19 = load ptr, ptr %5, align 8
  %20 = getelementptr inbounds nuw %struct.ResultRelInfo, ptr %19, i32 0, i32 24
  %21 = load i8, ptr %20, align 8, !range !4, !noundef !5
  %22 = trunc i8 %21 to i1
  br i1 %22, label %46, label %23

23:                                               ; preds = %12
  %24 = load ptr, ptr %5, align 8
  %25 = getelementptr inbounds nuw %struct.ResultRelInfo, ptr %24, i32 0, i32 22
  %26 = load ptr, ptr %25, align 8
  %27 = icmp ne ptr %26, null
  br i1 %27, label %28, label %46

28:                                               ; preds = %23
  %29 = load ptr, ptr %5, align 8
  %30 = getelementptr inbounds nuw %struct.ResultRelInfo, ptr %29, i32 0, i32 22
  %31 = load ptr, ptr %30, align 8
  %32 = getelementptr inbounds nuw %struct.FdwRoutine, ptr %31, i32 0, i32 18
  %33 = load ptr, ptr %32, align 8
  %34 = icmp ne ptr %33, null
  br i1 %34, label %35, label %46

35:                                               ; preds = %28
  %36 = load ptr, ptr %5, align 8
  %37 = getelementptr inbounds nuw %struct.ResultRelInfo, ptr %36, i32 0, i32 22
  %38 = load ptr, ptr %37, align 8
  %39 = getelementptr inbounds nuw %struct.FdwRoutine, ptr %38, i32 0, i32 18
  %40 = load ptr, ptr %39, align 8
  %41 = load ptr, ptr %2, align 8
  %42 = getelementptr inbounds nuw %struct.ModifyTableState, ptr %41, i32 0, i32 0
  %43 = getelementptr inbounds nuw %struct.PlanState, ptr %42, i32 0, i32 2
  %44 = load ptr, ptr %43, align 8
  %45 = load ptr, ptr %5, align 8
  call void %40(ptr noundef %44, ptr noundef %45)
  br label %46

46:                                               ; preds = %35, %28, %23, %12
  store i32 0, ptr %4, align 4
  br label %47

47:                                               ; preds = %68, %46
  %48 = load i32, ptr %4, align 4
  %49 = load ptr, ptr %5, align 8
  %50 = getelementptr inbounds nuw %struct.ResultRelInfo, ptr %49, i32 0, i32 26
  %51 = load i32, ptr %50, align 8
  %52 = icmp slt i32 %48, %51
  br i1 %52, label %53, label %71

53:                                               ; preds = %47
  %54 = load ptr, ptr %5, align 8
  %55 = getelementptr inbounds nuw %struct.ResultRelInfo, ptr %54, i32 0, i32 28
  %56 = load ptr, ptr %55, align 8
  %57 = load i32, ptr %4, align 4
  %58 = sext i32 %57 to i64
  %59 = getelementptr inbounds ptr, ptr %56, i64 %58
  %60 = load ptr, ptr %59, align 8
  call void @ExecDropSingleTupleTableSlot(ptr noundef %60)
  %61 = load ptr, ptr %5, align 8
  %62 = getelementptr inbounds nuw %struct.ResultRelInfo, ptr %61, i32 0, i32 29
  %63 = load ptr, ptr %62, align 8
  %64 = load i32, ptr %4, align 4
  %65 = sext i32 %64 to i64
  %66 = getelementptr inbounds ptr, ptr %63, i64 %65
  %67 = load ptr, ptr %66, align 8
  call void @ExecDropSingleTupleTableSlot(ptr noundef %67)
  br label %68

68:                                               ; preds = %53
  %69 = load i32, ptr %4, align 4
  %70 = add i32 %69, 1
  store i32 %70, ptr %4, align 4
  br label %47, !llvm.loop !20

71:                                               ; preds = %47
  call void @llvm.lifetime.end.p0(i64 8, ptr %5) #8
  call void @llvm.lifetime.end.p0(i64 4, ptr %4) #8
  br label %72

72:                                               ; preds = %71
  %73 = load i32, ptr %3, align 4
  %74 = add i32 %73, 1
  store i32 %74, ptr %3, align 4
  br label %6, !llvm.loop !21

75:                                               ; preds = %6
  %76 = load ptr, ptr %2, align 8
  %77 = getelementptr inbounds nuw %struct.ModifyTableState, ptr %76, i32 0, i32 14
  %78 = load ptr, ptr %77, align 8
  %79 = icmp ne ptr %78, null
  br i1 %79, label %80, label %94

80:                                               ; preds = %75
  %81 = load ptr, ptr %2, align 8
  %82 = load ptr, ptr %2, align 8
  %83 = getelementptr inbounds nuw %struct.ModifyTableState, ptr %82, i32 0, i32 14
  %84 = load ptr, ptr %83, align 8
  call void @ExecCleanupTupleRouting(ptr noundef %81, ptr noundef %84)
  %85 = load ptr, ptr %2, align 8
  %86 = getelementptr inbounds nuw %struct.ModifyTableState, ptr %85, i32 0, i32 13
  %87 = load ptr, ptr %86, align 8
  %88 = icmp ne ptr %87, null
  br i1 %88, label %89, label %93

89:                                               ; preds = %80
  %90 = load ptr, ptr %2, align 8
  %91 = getelementptr inbounds nuw %struct.ModifyTableState, ptr %90, i32 0, i32 13
  %92 = load ptr, ptr %91, align 8
  call void @ExecDropSingleTupleTableSlot(ptr noundef %92)
  br label %93

93:                                               ; preds = %89, %80
  br label %94

94:                                               ; preds = %93, %75
  %95 = load ptr, ptr %2, align 8
  %96 = getelementptr inbounds nuw %struct.ModifyTableState, ptr %95, i32 0, i32 7
  call void @EvalPlanQualEnd(ptr noundef %96)
  %97 = load ptr, ptr %2, align 8
  %98 = getelementptr inbounds nuw %struct.PlanState, ptr %97, i32 0, i32 9
  %99 = load ptr, ptr %98, align 8
  call void @ExecEndNode(ptr noundef %99)
  call void @llvm.lifetime.end.p0(i64 4, ptr %3) #8
  ret void
}