; Function Attrs: nounwind uwtable
define dso_local void @ExecEndModifyTable(ptr noundef %0) local_unnamed_addr #0 {
  %2 = getelementptr inbounds nuw i8, ptr %0, i64 208
  %3 = load i32, ptr %2, align 8
  %4 = icmp sgt i32 %3, 0
  br i1 %4, label %.lr.ph35, label %._crit_edge36

.lr.ph35:                                         ; preds = %1
  %5 = getelementptr inbounds nuw i8, ptr %0, i64 216
  %6 = getelementptr inbounds nuw i8, ptr %0, i64 16
  br label %7

7:                                                ; preds = %.lr.ph35, %._crit_edge
  %indvars.iv38 = phi i64 [ 0, %.lr.ph35 ], [ %indvars.iv.next39, %._crit_edge ]
  %8 = load ptr, ptr %5, align 8
  %9 = getelementptr inbounds nuw %struct.ResultRelInfo, ptr %8, i64 %indvars.iv38
  %10 = getelementptr inbounds nuw i8, ptr %9, i64 176
  %11 = load i8, ptr %10, align 8, !range !4, !noundef !5
  %12 = trunc nuw i8 %11 to i1
  br i1 %12, label %21, label %13

13:                                               ; preds = %7
  %14 = getelementptr inbounds nuw i8, ptr %9, i64 160
  %15 = load ptr, ptr %14, align 8
  %.not30 = icmp eq ptr %15, null
  br i1 %.not30, label %21, label %16

16:                                               ; preds = %13
  %17 = getelementptr inbounds nuw i8, ptr %15, i64 144
  %18 = load ptr, ptr %17, align 8
  %.not31 = icmp eq ptr %18, null
  br i1 %.not31, label %21, label %19

19:                                               ; preds = %16
  %20 = load ptr, ptr %6, align 8
  tail call void %18(ptr noundef %20, ptr noundef nonnull %9) #9
  br label %21

21:                                               ; preds = %19, %16, %13, %7
  %22 = getelementptr inbounds nuw i8, ptr %9, i64 184
  %23 = load i32, ptr %22, align 8
  %24 = icmp sgt i32 %23, 0
  br i1 %24, label %.lr.ph, label %._crit_edge

.lr.ph:                                           ; preds = %21
  %25 = getelementptr inbounds nuw i8, ptr %9, i64 192
  %26 = getelementptr inbounds nuw i8, ptr %9, i64 200
  br label %27

27:                                               ; preds = %.lr.ph, %27
  %indvars.iv = phi i64 [ 0, %.lr.ph ], [ %indvars.iv.next, %27 ]
  %28 = load ptr, ptr %25, align 8
  %29 = getelementptr inbounds nuw ptr, ptr %28, i64 %indvars.iv
  %30 = load ptr, ptr %29, align 8
  tail call void @ExecDropSingleTupleTableSlot(ptr noundef %30) #9
  %31 = load ptr, ptr %26, align 8
  %32 = getelementptr inbounds nuw ptr, ptr %31, i64 %indvars.iv
  %33 = load ptr, ptr %32, align 8
  tail call void @ExecDropSingleTupleTableSlot(ptr noundef %33) #9
  %indvars.iv.next = add nuw nsw i64 %indvars.iv, 1
  %34 = load i32, ptr %22, align 8
  %35 = sext i32 %34 to i64
  %36 = icmp slt i64 %indvars.iv.next, %35
  br i1 %36, label %27, label %._crit_edge, !llvm.loop !16

._crit_edge:                                      ; preds = %27, %21
  %indvars.iv.next39 = add nuw nsw i64 %indvars.iv38, 1
  %37 = load i32, ptr %2, align 8
  %38 = sext i32 %37 to i64
  %39 = icmp slt i64 %indvars.iv.next39, %38
  br i1 %39, label %7, label %._crit_edge36, !llvm.loop !17

._crit_edge36:                                    ; preds = %._crit_edge, %1
  %40 = getelementptr inbounds nuw i8, ptr %0, i64 368
  %41 = load ptr, ptr %40, align 8
  %.not = icmp eq ptr %41, null
  br i1 %.not, label %46, label %42

42:                                               ; preds = %._crit_edge36
  tail call void @ExecCleanupTupleRouting(ptr noundef nonnull %0, ptr noundef nonnull %41) #9
  %43 = getelementptr inbounds nuw i8, ptr %0, i64 360
  %44 = load ptr, ptr %43, align 8
  %.not29 = icmp eq ptr %44, null
  br i1 %.not29, label %46, label %45

45:                                               ; preds = %42
  tail call void @ExecDropSingleTupleTableSlot(ptr noundef nonnull %44) #9
  br label %46

46:                                               ; preds = %42, %45, %._crit_edge36
  %47 = getelementptr inbounds nuw i8, ptr %0, i64 232
  tail call void @EvalPlanQualEnd(ptr noundef nonnull %47) #9
  %48 = getelementptr inbounds nuw i8, ptr %0, i64 72
  %49 = load ptr, ptr %48, align 8
  tail call void @ExecEndNode(ptr noundef %49) #9
  ret void
}